; ModuleID = 'bench/linux/original/hid-ezkey.ll'
source_filename = "bench/linux/original/hid-ezkey.ll"
target datalayout = "e-m:e-p270:32:32-p271:32:32-p272:64:64-i64:64-i128:128-f80:128-n8:16:32:64-S128"
target triple = "x86_64-unknown-linux-gnu"

module asm ".section\09\22.initcall6.init\22, \22a\22\09\09"
module asm "__initcall__kmod_hid_ezkey__420_76_ez_driver_init6:\09\09\09"
module asm ".long\09ez_driver_init - .\09"
module asm ".previous\09\09\09\09\09"

%struct.hid_driver = type { ptr, ptr, %struct.list_head, %struct.spinlock, ptr, ptr, ptr, ptr, ptr, ptr, ptr, ptr, ptr, ptr, ptr, ptr, ptr, ptr, ptr, ptr, %struct.device_driver }
%struct.list_head = type { ptr, ptr }
%struct.spinlock = type { %union.anon }
%union.anon = type { %struct.raw_spinlock }
%struct.raw_spinlock = type { %struct.qspinlock }
%struct.qspinlock = type { %union.anon.0 }
%union.anon.0 = type { %struct.atomic_t }
%struct.atomic_t = type { i32 }
%struct.device_driver = type { ptr, ptr, ptr, ptr, i8, i32, ptr, ptr, ptr, ptr, ptr, ptr, ptr, ptr, ptr, ptr, ptr, ptr, ptr }
%struct.hid_device_id = type { i16, i16, i32, i32, i64 }
%struct.ratelimit_state = type { %struct.raw_spinlock, i32, i32, i32, i32, i64, i64 }

@__UNIQUE_ID___addressable_ez_driver_init421 = internal global ptr @ez_driver_init, section ".discard.addressable", align 8
@ez_driver = internal global %struct.hid_driver { ptr @.str.1, ptr @ez_devices, %struct.list_head zeroinitializer, %struct.spinlock zeroinitializer, ptr null, ptr null, ptr null, ptr null, ptr null, ptr null, ptr @ez_event, ptr null, ptr null, ptr @ez_input_mapping, ptr null, ptr null, ptr null, ptr null, ptr null, ptr null, %struct.device_driver zeroinitializer }, align 8
@__exitcall_ez_driver_exit = internal global ptr @ez_driver_exit, section ".exitcall.exit", align 8
@__UNIQUE_ID_file422 = internal constant [37 x i8] c"hid_ezkey.file=drivers/hid/hid-ezkey\00", section ".modinfo", align 1
@__UNIQUE_ID_license423 = internal constant [22 x i8] c"hid_ezkey.license=GPL\00", section ".modinfo", align 1
@.str = private unnamed_addr constant [10 x i8] c"hid_ezkey\00", align 1
@.str.1 = private unnamed_addr constant [6 x i8] c"ezkey\00", align 1
@ez_devices = internal constant [2 x %struct.hid_device_id] [%struct.hid_device_id { i16 3, i16 0, i32 1304, i32 2, i64 0 }, %struct.hid_device_id zeroinitializer], align 16
@hid_map_usage._rs = internal global %struct.ratelimit_state { %struct.raw_spinlock zeroinitializer, i32 5000, i32 10, i32 0, i32 0, i64 0, i64 0 }, align 8
@__func__.hid_map_usage = private unnamed_addr constant [14 x i8] c"hid_map_usage\00", align 1
@.str.2 = private unnamed_addr constant [31 x i8] c"\014%s: Invalid code %d type %d\0A\00", align 1
@llvm.compiler.used = appending global [5 x ptr] [ptr @__UNIQUE_ID___addressable_ez_driver_init421, ptr @__UNIQUE_ID_file422, ptr @__UNIQUE_ID_license423, ptr @__exitcall_ez_driver_exit, ptr @ez_driver_exit], section "llvm.metadata"

; Function Attrs: cold fn_ret_thunk_extern nounwind null_pointer_is_valid optsize
define internal i32 @ez_driver_init() #0 section ".init.text" align 16 {
  %1 = tail call i32 @__hid_register_driver(ptr noundef nonnull @ez_driver, ptr noundef null, ptr noundef nonnull @.str) #4
  ret i32 %1
}

; Function Attrs: cold fn_ret_thunk_extern nounwind null_pointer_is_valid optsize
define internal void @ez_driver_exit() #0 section ".exit.text" align 16 {
  tail call void @hid_unregister_driver(ptr noundef nonnull @ez_driver) #4
  ret void
}

; Function Attrs: null_pointer_is_valid
declare dso_local void @hid_unregister_driver(ptr noundef) local_unnamed_addr #1

; Function Attrs: null_pointer_is_valid
declare dso_local i32 @__hid_register_driver(ptr noundef, ptr noundef, ptr noundef) local_unnamed_addr #1

; Function Attrs: fn_ret_thunk_extern nounwind null_pointer_is_valid
define internal noundef i32 @ez_event(ptr nocapture noundef readonly %0, ptr nocapture noundef readonly %1, ptr nocapture noundef readonly %2, i32 noundef %3) #2 align 16 {
  %5 = getelementptr inbounds i8, ptr %0, i64 7152
  %6 = load i32, ptr %5, align 8
  %7 = and i32 %6, 1
  %8 = icmp eq i32 %7, 0
  br i1 %8, label %25, label %9

9:                                                ; preds = %4
  %10 = getelementptr inbounds i8, ptr %1, i64 120
  %11 = load ptr, ptr %10, align 8
  %12 = icmp eq ptr %11, null
  br i1 %12, label %25, label %13

13:                                               ; preds = %9
  %14 = getelementptr inbounds i8, ptr %2, i64 16
  %15 = load i8, ptr %14, align 4
  %16 = icmp eq i8 %15, 2
  br i1 %16, label %17, label %25

17:                                               ; preds = %13
  %18 = getelementptr inbounds i8, ptr %2, i64 14
  %19 = load i16, ptr %18, align 2
  %20 = icmp eq i16 %19, 6
  br i1 %20, label %21, label %25

21:                                               ; preds = %17
  %22 = getelementptr inbounds i8, ptr %11, i64 24
  %23 = load ptr, ptr %22, align 8
  %24 = sub i32 0, %3
  tail call void @input_event(ptr noundef %23, i32 noundef 2, i32 noundef 8, i32 noundef %24) #4
  br label %25

25:                                               ; preds = %21, %17, %13, %9, %4
  %26 = phi i32 [ 1, %21 ], [ 0, %9 ], [ 0, %4 ], [ 0, %13 ], [ 0, %17 ]
  ret i32 %26
}

; Function Attrs: fn_ret_thunk_extern nounwind null_pointer_is_valid
define internal noundef i32 @ez_input_mapping(ptr nocapture readnone %0, ptr nocapture noundef readonly %1, ptr nocapture readnone %2, ptr nocapture noundef %3, ptr nocapture noundef writeonly %4, ptr nocapture noundef writeonly %5) #2 align 16 {
  %7 = load i32, ptr %3, align 4
  %8 = and i32 %7, -65536
  %9 = icmp eq i32 %8, 786432
  br i1 %9, label %10, label %56

10:                                               ; preds = %6
  %11 = trunc i32 %7 to i16
  switch i16 %11, label %56 [
    i16 560, label %12
    i16 561, label %26
    i16 562, label %40
  ]

12:                                               ; preds = %10
  %13 = getelementptr inbounds i8, ptr %1, i64 24
  %14 = load ptr, ptr %13, align 8
  %15 = getelementptr inbounds i8, ptr %14, i64 48
  %16 = icmp eq ptr %15, null
  br i1 %16, label %17, label %23, !prof !5

17:                                               ; preds = %12
  %18 = tail call i32 @___ratelimit(ptr noundef nonnull @hid_map_usage._rs, ptr noundef nonnull @__func__.hid_map_usage) #4
  %19 = icmp eq i32 %18, 0
  br i1 %19, label %54, label %20

20:                                               ; preds = %17
  %21 = load ptr, ptr %14, align 8
  %22 = tail call i32 (ptr, ...) @_printk(ptr noundef nonnull @.str.2, ptr noundef %21, i32 noundef 272, i32 noundef 1) #5
  br label %54

23:                                               ; preds = %12
  %24 = getelementptr inbounds i8, ptr %3, i64 16
  store i8 1, ptr %24, align 4
  %25 = getelementptr inbounds i8, ptr %3, i64 14
  store i16 272, ptr %25, align 2
  store i32 767, ptr %5, align 4
  br label %54

26:                                               ; preds = %10
  %27 = getelementptr inbounds i8, ptr %1, i64 24
  %28 = load ptr, ptr %27, align 8
  %29 = getelementptr inbounds i8, ptr %28, i64 144
  %30 = icmp eq ptr %29, null
  br i1 %30, label %31, label %37, !prof !5

31:                                               ; preds = %26
  %32 = tail call i32 @___ratelimit(ptr noundef nonnull @hid_map_usage._rs, ptr noundef nonnull @__func__.hid_map_usage) #4
  %33 = icmp eq i32 %32, 0
  br i1 %33, label %54, label %34

34:                                               ; preds = %31
  %35 = load ptr, ptr %28, align 8
  %36 = tail call i32 (ptr, ...) @_printk(ptr noundef nonnull @.str.2, ptr noundef %35, i32 noundef 8, i32 noundef 2) #5
  br label %54

37:                                               ; preds = %26
  %38 = getelementptr inbounds i8, ptr %3, i64 16
  store i8 2, ptr %38, align 4
  %39 = getelementptr inbounds i8, ptr %3, i64 14
  store i16 8, ptr %39, align 2
  store i32 15, ptr %5, align 4
  br label %54

40:                                               ; preds = %10
  %41 = getelementptr inbounds i8, ptr %1, i64 24
  %42 = load ptr, ptr %41, align 8
  %43 = getelementptr inbounds i8, ptr %42, i64 144
  %44 = icmp eq ptr %43, null
  br i1 %44, label %45, label %51, !prof !5

45:                                               ; preds = %40
  %46 = tail call i32 @___ratelimit(ptr noundef nonnull @hid_map_usage._rs, ptr noundef nonnull @__func__.hid_map_usage) #4
  %47 = icmp eq i32 %46, 0
  br i1 %47, label %54, label %48

48:                                               ; preds = %45
  %49 = load ptr, ptr %42, align 8
  %50 = tail call i32 (ptr, ...) @_printk(ptr noundef nonnull @.str.2, ptr noundef %49, i32 noundef 6, i32 noundef 2) #5
  br label %54

51:                                               ; preds = %40
  %52 = getelementptr inbounds i8, ptr %3, i64 16
  store i8 2, ptr %52, align 4
  %53 = getelementptr inbounds i8, ptr %3, i64 14
  store i16 6, ptr %53, align 2
  store i32 15, ptr %5, align 4
  br label %54

54:                                               ; preds = %51, %48, %45, %37, %34, %31, %23, %20, %17
  %55 = phi ptr [ %15, %23 ], [ null, %20 ], [ null, %17 ], [ %29, %37 ], [ null, %34 ], [ null, %31 ], [ %43, %51 ], [ null, %48 ], [ null, %45 ]
  store ptr %55, ptr %4, align 8
  br label %56

56:                                               ; preds = %54, %10, %6
  %57 = phi i32 [ 0, %6 ], [ 0, %10 ], [ 1, %54 ]
  ret i32 %57
}

; Function Attrs: null_pointer_is_valid
declare dso_local void @input_event(ptr noundef, i32 noundef, i32 noundef, i32 noundef) local_unnamed_addr #1

; Function Attrs: null_pointer_is_valid
declare dso_local i32 @___ratelimit(ptr noundef, ptr noundef) local_unnamed_addr #1

; Function Attrs: cold null_pointer_is_valid
declare dso_local i32 @_printk(ptr noundef, ...) local_unnamed_addr #3


!llvm.module.flags = !{!0, !1, !2, !3, !4}

!0 = !{i32 1, !"wchar_size", i32 2}
!1 = !{i32 8, !"cf-protection-branch", i32 1}
!2 = !{i32 4, !"function_return_thunk_extern", i32 1}
!3 = !{i32 4, !"indirect_branch_cs_prefix", i32 1}
!4 = !{i32 4, !"SkipRaxSetup", i32 1}
!5 = !{!"branch_weights", i32 1, i32 2000}
